; Function Attrs: mustprogress uwtable
define hidden i32 @mbedtls_asn1_get_mpi(ptr noundef captures(none) %0, ptr noundef %1, ptr noundef %2) local_unnamed_addr #3 {
  %4 = load ptr, ptr %0, align 8, !tbaa !3
  %5 = ptrtoint ptr %1 to i64
  %6 = ptrtoint ptr %4 to i64
  %7 = sub i64 %5, %6
  %8 = icmp slt i64 %7, 1
  br i1 %8, label %mbedtls_asn1_get_tag.exit.thread, label %9

9:                                                ; preds = %3
  %10 = load i8, ptr %4, align 1, !tbaa !8
  %.not.i = icmp eq i8 %10, 2
  br i1 %.not.i, label %11, label %mbedtls_asn1_get_tag.exit.thread

11:                                               ; preds = %9
  %12 = getelementptr inbounds nuw i8, ptr %4, i64 1
  store ptr %12, ptr %0, align 8, !tbaa !3
  %13 = ptrtoint ptr %12 to i64
  %14 = sub i64 %5, %13
  %15 = icmp slt i64 %14, 1
  br i1 %15, label %mbedtls_asn1_get_tag.exit.thread, label %16

16:                                               ; preds = %11
  %17 = load i8, ptr %12, align 1, !tbaa !8
  %18 = icmp sgt i8 %17, -1
  br i1 %18, label %19, label %23

19:                                               ; preds = %16
  %20 = getelementptr inbounds nuw i8, ptr %4, i64 2
  store ptr %20, ptr %0, align 8, !tbaa !3
  %21 = load i8, ptr %12, align 1, !tbaa !8
  %22 = zext i8 %21 to i64
  br label %83

23:                                               ; preds = %16
  %24 = and i8 %17, 127
  switch i8 %24, label %mbedtls_asn1_get_tag.exit.thread [
    i8 1, label %25
    i8 2, label %32
    i8 3, label %44
    i8 4, label %61
  ]

25:                                               ; preds = %23
  %26 = icmp eq i64 %14, 1
  br i1 %26, label %mbedtls_asn1_get_tag.exit.thread, label %27

27:                                               ; preds = %25
  %28 = getelementptr inbounds nuw i8, ptr %4, i64 2
  %29 = load i8, ptr %28, align 1, !tbaa !8
  %30 = zext i8 %29 to i64
  %31 = getelementptr inbounds nuw i8, ptr %4, i64 3
  store ptr %31, ptr %0, align 8, !tbaa !3
  br label %83

32:                                               ; preds = %23
  %33 = icmp samesign ult i64 %14, 3
  br i1 %33, label %mbedtls_asn1_get_tag.exit.thread, label %34

34:                                               ; preds = %32
  %35 = getelementptr inbounds nuw i8, ptr %4, i64 2
  %36 = load i8, ptr %35, align 1, !tbaa !8
  %37 = zext i8 %36 to i64
  %38 = shl nuw nsw i64 %37, 8
  %39 = getelementptr inbounds nuw i8, ptr %4, i64 3
  %40 = load i8, ptr %39, align 1, !tbaa !8
  %41 = zext i8 %40 to i64
  %42 = or disjoint i64 %38, %41
  %43 = getelementptr inbounds nuw i8, ptr %4, i64 4
  store ptr %43, ptr %0, align 8, !tbaa !3
  br label %83

44:                                               ; preds = %23
  %45 = icmp samesign ult i64 %14, 4
  br i1 %45, label %mbedtls_asn1_get_tag.exit.thread, label %46

46:                                               ; preds = %44
  %47 = getelementptr inbounds nuw i8, ptr %4, i64 2
  %48 = load i8, ptr %47, align 1, !tbaa !8
  %49 = zext i8 %48 to i64
  %50 = shl nuw nsw i64 %49, 16
  %51 = getelementptr inbounds nuw i8, ptr %4, i64 3
  %52 = load i8, ptr %51, align 1, !tbaa !8
  %53 = zext i8 %52 to i64
  %54 = shl nuw nsw i64 %53, 8
  %55 = or disjoint i64 %54, %50
  %56 = getelementptr inbounds nuw i8, ptr %4, i64 4
  %57 = load i8, ptr %56, align 1, !tbaa !8
  %58 = zext i8 %57 to i64
  %59 = or disjoint i64 %55, %58
  %60 = getelementptr inbounds nuw i8, ptr %4, i64 5
  store ptr %60, ptr %0, align 8, !tbaa !3
  br label %83

61:                                               ; preds = %23
  %62 = icmp samesign ult i64 %14, 5
  br i1 %62, label %mbedtls_asn1_get_tag.exit.thread, label %63

63:                                               ; preds = %61
  %64 = getelementptr inbounds nuw i8, ptr %4, i64 2
  %65 = load i8, ptr %64, align 1, !tbaa !8
  %66 = zext i8 %65 to i64
  %67 = shl nuw nsw i64 %66, 24
  %68 = getelementptr inbounds nuw i8, ptr %4, i64 3
  %69 = load i8, ptr %68, align 1, !tbaa !8
  %70 = zext i8 %69 to i64
  %71 = shl nuw nsw i64 %70, 16
  %72 = or disjoint i64 %71, %67
  %73 = getelementptr inbounds nuw i8, ptr %4, i64 4
  %74 = load i8, ptr %73, align 1, !tbaa !8
  %75 = zext i8 %74 to i64
  %76 = shl nuw nsw i64 %75, 8
  %77 = or disjoint i64 %72, %76
  %78 = getelementptr inbounds nuw i8, ptr %4, i64 5
  %79 = load i8, ptr %78, align 1, !tbaa !8
  %80 = zext i8 %79 to i64
  %81 = or disjoint i64 %77, %80
  %82 = getelementptr inbounds nuw i8, ptr %4, i64 6
  store ptr %82, ptr %0, align 8, !tbaa !3
  br label %83

83:                                               ; preds = %63, %46, %34, %27, %19
  %.1 = phi i64 [ %22, %19 ], [ %81, %63 ], [ %59, %46 ], [ %42, %34 ], [ %30, %27 ]
  %84 = phi ptr [ %20, %19 ], [ %82, %63 ], [ %60, %46 ], [ %43, %34 ], [ %31, %27 ]
  %85 = ptrtoint ptr %84 to i64
  %86 = sub i64 %5, %85
  %87 = icmp ugt i64 %.1, %86
  br i1 %87, label %mbedtls_asn1_get_tag.exit.thread, label %mbedtls_asn1_get_tag.exit

mbedtls_asn1_get_tag.exit:                        ; preds = %83
  %88 = tail call i32 @mbedtls_mpi_read_binary(ptr noundef %2, ptr noundef nonnull %84, i64 noundef %.1)
  %89 = load ptr, ptr %0, align 8, !tbaa !3
  %90 = getelementptr inbounds nuw i8, ptr %89, i64 %.1
  store ptr %90, ptr %0, align 8, !tbaa !3
  br label %mbedtls_asn1_get_tag.exit.thread

mbedtls_asn1_get_tag.exit.thread:                 ; preds = %83, %23, %61, %44, %32, %25, %11, %9, %3, %mbedtls_asn1_get_tag.exit
  %.0 = phi i32 [ %88, %mbedtls_asn1_get_tag.exit ], [ -100, %23 ], [ -96, %61 ], [ -96, %44 ], [ -96, %32 ], [ -96, %25 ], [ -96, %11 ], [ -98, %9 ], [ -96, %3 ], [ -96, %83 ]
  ret i32 %.0
}